; Function Attrs: mustprogress uwtable
define dso_local noundef zeroext i1 @_ZNK9Statement32is_jump_target_from_other_blocksEv(ptr noundef nonnull align 8 dereferenceable(32) %0) local_unnamed_addr #4 align 2 personality ptr @__gxx_personality_v0 {
  %2 = alloca %"class.std::vector.112", align 8
  call void @llvm.memset.p0.i64(ptr noundef nonnull align 8 dereferenceable(24) %2, i8 0, i64 24, i1 false)
  %3 = invoke noundef i32 @_ZNK9Statement17find_jump_sourcesERSt6vectorIPK13StatementGotoSaIS3_EE(ptr noundef nonnull align 8 dereferenceable(32) %0, ptr noundef nonnull align 8 dereferenceable(24) %2)
          to label %4 unwind label %19

4:                                                ; preds = %1
  %.not = icmp eq i32 %3, 0
  %.pre = load ptr, ptr %2, align 8
  br i1 %.not, label %.loopexit, label %.preheader

.preheader:                                       ; preds = %4
  %5 = getelementptr inbounds i8, ptr %2, i64 8
  %6 = load ptr, ptr %5, align 8
  %.not13 = icmp eq ptr %6, %.pre
  br i1 %.not13, label %.loopexit, label %.lr.ph

.lr.ph:                                           ; preds = %.preheader
  %7 = ptrtoint ptr %6 to i64
  %8 = ptrtoint ptr %.pre to i64
  %9 = sub i64 %7, %8
  %10 = ashr exact i64 %9, 3
  %11 = getelementptr inbounds i8, ptr %0, i64 24
  %12 = load ptr, ptr %11, align 8
  %umax = tail call i64 @llvm.umax.i64(i64 %10, i64 1)
  br label %13

13:                                               ; preds = %13, %.lr.ph
  %.010 = phi i64 [ 0, %.lr.ph ], [ %18, %13 ]
  %14 = getelementptr inbounds ptr, ptr %.pre, i64 %.010
  %15 = load ptr, ptr %14, align 8
  %16 = getelementptr inbounds i8, ptr %15, i64 24
  %17 = load ptr, ptr %16, align 8
  %.not7.not = icmp ne ptr %17, %12
  %18 = add nuw i64 %.010, 1
  %exitcond.not = icmp eq i64 %18, %umax
  %or.cond = select i1 %.not7.not, i1 true, i1 %exitcond.not
  br i1 %or.cond, label %.loopexit.thread, label %13, !llvm.loop !69

19:                                               ; preds = %1
  %20 = landingpad { ptr, i32 }
          cleanup
  %21 = load ptr, ptr %2, align 8
  %.not.i.i.i = icmp eq ptr %21, null
  br i1 %.not.i.i.i, label %_ZNSt6vectorIPK13StatementGotoSaIS2_EED2Ev.exit, label %22

22:                                               ; preds = %19
  tail call void @_ZdlPv(ptr noundef nonnull %21) #22
  br label %_ZNSt6vectorIPK13StatementGotoSaIS2_EED2Ev.exit

_ZNSt6vectorIPK13StatementGotoSaIS2_EED2Ev.exit:  ; preds = %19, %22
  resume { ptr, i32 } %20

.loopexit:                                        ; preds = %.preheader, %4
  %.not.i.i.i8 = icmp eq ptr %.pre, null
  br i1 %.not.i.i.i8, label %_ZNSt6vectorIPK13StatementGotoSaIS2_EED2Ev.exit9, label %.loopexit.thread

.loopexit.thread:                                 ; preds = %13, %.loopexit
  %.0616 = phi i1 [ false, %.loopexit ], [ %.not7.not, %13 ]
  tail call void @_ZdlPv(ptr noundef nonnull %.pre) #22
  br label %_ZNSt6vectorIPK13StatementGotoSaIS2_EED2Ev.exit9

_ZNSt6vectorIPK13StatementGotoSaIS2_EED2Ev.exit9: ; preds = %.loopexit, %.loopexit.thread
  %.0617 = phi i1 [ false, %.loopexit ], [ %.0616, %.loopexit.thread ]
  ret i1 %.0617
}